; Function Attrs: mustprogress uwtable
define void @_ZN2cv7hconcatERKNS_11_InputArrayES2_RKNS_12_OutputArrayE(ptr noundef nonnull align 8 dereferenceable(24) %0, ptr noundef nonnull align 8 dereferenceable(24) %1, ptr noundef nonnull align 8 dereferenceable(24) %2) local_unnamed_addr #1 personality ptr @__gxx_personality_v0 {
  %4 = alloca %"class.cv::utils::trace::details::Region", align 8
  %5 = alloca [2 x %"class.cv::Mat"], align 16
  call void @llvm.lifetime.start.p0(i64 16, ptr nonnull %4) #17
  call void @_ZN2cv5utils5trace7details6RegionC1ERKNS3_21LocationStaticStorageE(ptr noundef nonnull align 8 dereferenceable(12) %4, ptr noundef nonnull align 8 dereferenceable(32) @_ZZN2cv7hconcatERKNS_11_InputArrayES2_RKNS_12_OutputArrayEE24__cv_trace_location_fn81)
  call void @llvm.lifetime.start.p0(i64 192, ptr nonnull %5) #17
  %6 = invoke noundef i32 @_ZNK2cv11_InputArray4kindEv(ptr noundef nonnull align 8 dereferenceable(24) %0)
          to label %.noexc unwind label %.thread

.noexc:                                           ; preds = %3
  %7 = icmp eq i32 %6, 65536
  br i1 %7, label %8, label %11

8:                                                ; preds = %.noexc
  %9 = getelementptr inbounds nuw i8, ptr %0, i64 8
  %10 = load ptr, ptr %9, align 8, !tbaa !35, !noalias !51
  invoke void @_ZN2cv3MatC1ERKS0_(ptr noundef nonnull align 8 dereferenceable(96) %5, ptr noundef nonnull align 8 dereferenceable(96) %10)
          to label %_ZNK2cv11_InputArray6getMatEi.exit unwind label %.thread

11:                                               ; preds = %.noexc
  invoke void @_ZNK2cv11_InputArray7getMat_Ei(ptr dead_on_unwind nonnull writable sret(%"class.cv::Mat") align 8 %5, ptr noundef nonnull align 8 dereferenceable(24) %0, i32 noundef -1)
          to label %_ZNK2cv11_InputArray6getMatEi.exit unwind label %.thread

_ZNK2cv11_InputArray6getMatEi.exit:               ; preds = %8, %11
  %12 = getelementptr inbounds nuw i8, ptr %5, i64 96
  %13 = invoke noundef i32 @_ZNK2cv11_InputArray4kindEv(ptr noundef nonnull align 8 dereferenceable(24) %1)
          to label %.noexc11 unwind label %.loopexit.loopexit18

.noexc11:                                         ; preds = %_ZNK2cv11_InputArray6getMatEi.exit
  %14 = icmp eq i32 %13, 65536
  br i1 %14, label %15, label %18

15:                                               ; preds = %.noexc11
  %16 = getelementptr inbounds nuw i8, ptr %1, i64 8
  %17 = load ptr, ptr %16, align 8, !tbaa !35, !noalias !54
  invoke void @_ZN2cv3MatC1ERKS0_(ptr noundef nonnull align 8 dereferenceable(96) %12, ptr noundef nonnull align 8 dereferenceable(96) %17)
          to label %_ZNK2cv11_InputArray6getMatEi.exit14 unwind label %.loopexit.loopexit18

18:                                               ; preds = %.noexc11
  invoke void @_ZNK2cv11_InputArray7getMat_Ei(ptr dead_on_unwind nonnull writable sret(%"class.cv::Mat") align 8 %12, ptr noundef nonnull align 8 dereferenceable(24) %1, i32 noundef -1)
          to label %_ZNK2cv11_InputArray6getMatEi.exit14 unwind label %.loopexit.loopexit18

_ZNK2cv11_InputArray6getMatEi.exit14:             ; preds = %15, %18
  invoke void @_ZN2cv7hconcatEPKNS_3MatEmRKNS_12_OutputArrayE(ptr noundef nonnull %5, i64 noundef 2, ptr noundef nonnull align 8 dereferenceable(24) %2)
          to label %19 unwind label %32

19:                                               ; preds = %_ZNK2cv11_InputArray6getMatEi.exit14
  %20 = getelementptr inbounds nuw i8, ptr %5, i64 192
  br label %21

21:                                               ; preds = %21, %19
  %22 = phi ptr [ %20, %19 ], [ %23, %21 ]
  %23 = getelementptr inbounds i8, ptr %22, i64 -96
  call void @_ZN2cv3MatD1Ev(ptr noundef nonnull align 8 dereferenceable(96) %23) #17
  %24 = icmp eq ptr %23, %5
  br i1 %24, label %25, label %21

25:                                               ; preds = %21
  call void @llvm.lifetime.end.p0(i64 192, ptr nonnull %5) #17
  %26 = getelementptr inbounds nuw i8, ptr %4, i64 8
  %27 = load i32, ptr %26, align 8, !tbaa !48
  %.not.i = icmp eq i32 %27, 0
  br i1 %.not.i, label %_ZN2cv5utils5trace7details6RegionD2Ev.exit, label %28

28:                                               ; preds = %25
  invoke void @_ZN2cv5utils5trace7details6Region7destroyEv(ptr noundef nonnull align 8 dereferenceable(12) %4)
          to label %_ZN2cv5utils5trace7details6RegionD2Ev.exit unwind label %29

29:                                               ; preds = %28
  %30 = landingpad { ptr, i32 }
          catch ptr null
  %31 = extractvalue { ptr, i32 } %30, 0
  call void @__clang_call_terminate(ptr %31) #20
  unreachable

_ZN2cv5utils5trace7details6RegionD2Ev.exit:       ; preds = %25, %28
  call void @llvm.lifetime.end.p0(i64 16, ptr nonnull %4) #17
  ret void

.thread:                                          ; preds = %3, %8, %11
  %lpad.thr_comm = landingpad { ptr, i32 }
          cleanup
  br label %.loopexit

.loopexit.loopexit18:                             ; preds = %18, %15, %_ZNK2cv11_InputArray6getMatEi.exit
  %lpad.thr_comm.split-lp = landingpad { ptr, i32 }
          cleanup
  call void @_ZN2cv3MatD1Ev(ptr noundef nonnull align 8 dereferenceable(96) %5) #17
  br label %.loopexit

32:                                               ; preds = %_ZNK2cv11_InputArray6getMatEi.exit14
  %33 = landingpad { ptr, i32 }
          cleanup
  %34 = getelementptr inbounds nuw i8, ptr %5, i64 192
  br label %35

35:                                               ; preds = %35, %32
  %36 = phi ptr [ %34, %32 ], [ %37, %35 ]
  %37 = getelementptr inbounds i8, ptr %36, i64 -96
  call void @_ZN2cv3MatD1Ev(ptr noundef nonnull align 8 dereferenceable(96) %37) #17
  %38 = icmp eq ptr %37, %5
  br i1 %38, label %.loopexit, label %35

.loopexit:                                        ; preds = %35, %.loopexit.loopexit18, %.thread
  %.pn = phi { ptr, i32 } [ %lpad.thr_comm, %.thread ], [ %lpad.thr_comm.split-lp, %.loopexit.loopexit18 ], [ %33, %35 ]
  call void @llvm.lifetime.end.p0(i64 192, ptr nonnull %5) #17
  call void @_ZN2cv5utils5trace7details6RegionD2Ev(ptr noundef nonnull align 8 dereferenceable(12) %4) #17
  call void @llvm.lifetime.end.p0(i64 16, ptr nonnull %4) #17
  resume { ptr, i32 } %.pn
}